
SPI.elf:     file format elf32-avr

Sections:
Idx Name          Size      VMA       LMA       File off  Algn
  0 .data         0000000e  00800100  000008ca  0000093e  2**0
                  CONTENTS, ALLOC, LOAD, DATA
  1 .text         000008ca  00000000  00000000  00000074  2**1
                  CONTENTS, ALLOC, LOAD, READONLY, CODE
  2 .comment      00000030  00000000  00000000  0000094c  2**0
                  CONTENTS, READONLY
  3 .note.gnu.avr.deviceinfo 00000040  00000000  00000000  0000097c  2**2
                  CONTENTS, READONLY
  4 .debug_aranges 00000060  00000000  00000000  000009bc  2**0
                  CONTENTS, READONLY, DEBUGGING
  5 .debug_info   00000bf7  00000000  00000000  00000a1c  2**0
                  CONTENTS, READONLY, DEBUGGING
  6 .debug_abbrev 000008b2  00000000  00000000  00001613  2**0
                  CONTENTS, READONLY, DEBUGGING
  7 .debug_line   00000610  00000000  00000000  00001ec5  2**0
                  CONTENTS, READONLY, DEBUGGING
  8 .debug_frame  000000c4  00000000  00000000  000024d8  2**2
                  CONTENTS, READONLY, DEBUGGING
  9 .debug_str    0000046e  00000000  00000000  0000259c  2**0
                  CONTENTS, READONLY, DEBUGGING
 10 .debug_loc    00000371  00000000  00000000  00002a0a  2**0
                  CONTENTS, READONLY, DEBUGGING
 11 .debug_ranges 00000040  00000000  00000000  00002d7b  2**0
                  CONTENTS, READONLY, DEBUGGING

Disassembly of section .text:

00000000 <__vectors>:
   0:	0c 94 34 00 	jmp	0x68	; 0x68 <__ctors_end>
   4:	0c 94 49 00 	jmp	0x92	; 0x92 <__bad_interrupt>
   8:	0c 94 49 00 	jmp	0x92	; 0x92 <__bad_interrupt>
   c:	0c 94 49 00 	jmp	0x92	; 0x92 <__bad_interrupt>
  10:	0c 94 49 00 	jmp	0x92	; 0x92 <__bad_interrupt>
  14:	0c 94 49 00 	jmp	0x92	; 0x92 <__bad_interrupt>
  18:	0c 94 49 00 	jmp	0x92	; 0x92 <__bad_interrupt>
  1c:	0c 94 49 00 	jmp	0x92	; 0x92 <__bad_interrupt>
  20:	0c 94 49 00 	jmp	0x92	; 0x92 <__bad_interrupt>
  24:	0c 94 49 00 	jmp	0x92	; 0x92 <__bad_interrupt>
  28:	0c 94 49 00 	jmp	0x92	; 0x92 <__bad_interrupt>
  2c:	0c 94 49 00 	jmp	0x92	; 0x92 <__bad_interrupt>
  30:	0c 94 49 00 	jmp	0x92	; 0x92 <__bad_interrupt>
  34:	0c 94 49 00 	jmp	0x92	; 0x92 <__bad_interrupt>
  38:	0c 94 49 00 	jmp	0x92	; 0x92 <__bad_interrupt>
  3c:	0c 94 49 00 	jmp	0x92	; 0x92 <__bad_interrupt>
  40:	0c 94 49 00 	jmp	0x92	; 0x92 <__bad_interrupt>
  44:	0c 94 49 00 	jmp	0x92	; 0x92 <__bad_interrupt>
  48:	0c 94 49 00 	jmp	0x92	; 0x92 <__bad_interrupt>
  4c:	0c 94 49 00 	jmp	0x92	; 0x92 <__bad_interrupt>
  50:	0c 94 49 00 	jmp	0x92	; 0x92 <__bad_interrupt>
  54:	0c 94 49 00 	jmp	0x92	; 0x92 <__bad_interrupt>
  58:	0c 94 49 00 	jmp	0x92	; 0x92 <__bad_interrupt>
  5c:	0c 94 49 00 	jmp	0x92	; 0x92 <__bad_interrupt>
  60:	0c 94 49 00 	jmp	0x92	; 0x92 <__bad_interrupt>
  64:	0c 94 49 00 	jmp	0x92	; 0x92 <__bad_interrupt>

00000068 <__ctors_end>:
  68:	11 24       	eor	r1, r1
  6a:	1f be       	out	0x3f, r1	; 63
  6c:	cf ef       	ldi	r28, 0xFF	; 255
  6e:	d8 e0       	ldi	r29, 0x08	; 8
  70:	de bf       	out	0x3e, r29	; 62
  72:	cd bf       	out	0x3d, r28	; 61

00000074 <__do_copy_data>:
  74:	11 e0       	ldi	r17, 0x01	; 1
  76:	a0 e0       	ldi	r26, 0x00	; 0
  78:	b1 e0       	ldi	r27, 0x01	; 1
  7a:	ea ec       	ldi	r30, 0xCA	; 202
  7c:	f8 e0       	ldi	r31, 0x08	; 8
  7e:	02 c0       	rjmp	.+4      	; 0x84 <__do_copy_data+0x10>
  80:	05 90       	lpm	r0, Z+
  82:	0d 92       	st	X+, r0
  84:	ae 30       	cpi	r26, 0x0E	; 14
  86:	b1 07       	cpc	r27, r17
  88:	d9 f7       	brne	.-10     	; 0x80 <__do_copy_data+0xc>
  8a:	0e 94 4b 00 	call	0x96	; 0x96 <main>
  8e:	0c 94 63 04 	jmp	0x8c6	; 0x8c6 <_exit>

00000092 <__bad_interrupt>:
  92:	0c 94 00 00 	jmp	0	; 0x0 <__vectors>

00000096 <main>:
#include <avr/io.h>
#include <util/delay.h>
#include "uart.h"

int main ()
{
  96:	cf 93       	push	r28
  98:	df 93       	push	r29
  9a:	00 d0       	rcall	.+0      	; 0x9c <main+0x6>
  9c:	00 d0       	rcall	.+0      	; 0x9e <main+0x8>
  9e:	cd b7       	in	r28, 0x3d	; 61
  a0:	de b7       	in	r29, 0x3e	; 62
	uint32_t raw_temp,MSB,LSB,XLSB;
	int16_t dig_T3, dig_T2;
	float var1,var2, temp,temp_final;
	
	
	 UART_Init(); //Initialize UART
  a2:	0e 94 d5 01 	call	0x3aa	; 0x3aa <UART_Init>
	
	// Set MOSI, SCK, and SS as output. Set PB0 as output for LED.
	DDRB |= (1 << DDB3) | (1 << DDB5) | (1 << DDB2) | (1 << DDB0);
  a6:	84 b1       	in	r24, 0x04	; 4
  a8:	8d 62       	ori	r24, 0x2D	; 45
  aa:	84 b9       	out	0x04, r24	; 4
	// Set MISO as input
	DDRB &= ~ (1 << DDB4);
  ac:	84 b1       	in	r24, 0x04	; 4
  ae:	8f 7e       	andi	r24, 0xEF	; 239
  b0:	84 b9       	out	0x04, r24	; 4
	// Enable SPI and Master mode. Set clock rate fosc / 16
	SPCR |= (1 << SPE) | (1 << MSTR) | (1 << SPR0);
  b2:	8c b5       	in	r24, 0x2c	; 44
  b4:	81 65       	ori	r24, 0x51	; 81
  b6:	8c bd       	out	0x2c, r24	; 44
	//Select SPI mode to MODE 0.
	SPCR &= ~ ((1 << CPOL) | (1 << CPHA));
  b8:	8c b5       	in	r24, 0x2c	; 44
  ba:	83 7f       	andi	r24, 0xF3	; 243
  bc:	8c bd       	out	0x2c, r24	; 44
	
	// Pull SS low to select slave
	PORTB &= ~ (1 << PORTB2);
  be:	85 b1       	in	r24, 0x05	; 5
  c0:	8b 7f       	andi	r24, 0xFB	; 251
  c2:	85 b9       	out	0x05, r24	; 5
	// For read operation, MSB=1, hence OR register address with 0X80
	SPDR = 0XD0 | 0X80;
  c4:	80 ed       	ldi	r24, 0xD0	; 208
  c6:	8e bd       	out	0x2e, r24	; 46
	// Wait until transmission is complete
	while (! (SPSR & (1 << SPIF)));
  c8:	0d b4       	in	r0, 0x2d	; 45
  ca:	07 fe       	sbrs	r0, 7
  cc:	fd cf       	rjmp	.-6      	; 0xc8 <main+0x32>
	//To reset SPIF bit, read the SPDR data (copy data to a variable)
	(void)SPDR; //Here we get random value stored in slave
  ce:	8e b5       	in	r24, 0x2e	; 46
	
	//For reading the chip id, send 0X00 so that data from slave comes to master.
	SPDR = 0X00;
  d0:	1e bc       	out	0x2e, r1	; 46
	// Wait until transmission is complete
	while (! (SPSR & (1 << SPIF)));
  d2:	0d b4       	in	r0, 0x2d	; 45
  d4:	07 fe       	sbrs	r0, 7
  d6:	fd cf       	rjmp	.-6      	; 0xd2 <main+0x3c>
	// Read chip id which is now in SPDR
	chip_id = SPDR; // Here the original data (CHIP ID) is obtained
  d8:	2e b5       	in	r18, 0x2e	; 46
  da:	29 83       	std	Y+1, r18	; 0x01
	// Pull SS high to deselect slave
	PORTB |= (1 << PORTB2);
  dc:	85 b1       	in	r24, 0x05	; 5
  de:	84 60       	ori	r24, 0x04	; 4
  e0:	85 b9       	out	0x05, r24	; 5
	
	// Enable CTRL_MEAS = 0x27
	PORTB &= ~(1 << PORTB2);          // SS LOW TO SELECT SLAVE
  e2:	85 b1       	in	r24, 0x05	; 5
  e4:	8b 7f       	andi	r24, 0xFB	; 251
  e6:	85 b9       	out	0x05, r24	; 5
	SPDR = 0xF4 & 0x7F;               // For write operation, MSB=0, hence AND register address with 0X7F
  e8:	84 e7       	ldi	r24, 0x74	; 116
  ea:	8e bd       	out	0x2e, r24	; 46
	while (!(SPSR & (1 << SPIF)));
  ec:	0d b4       	in	r0, 0x2d	; 45
  ee:	07 fe       	sbrs	r0, 7
  f0:	fd cf       	rjmp	.-6      	; 0xec <main+0x56>
	(void)SPDR;
  f2:	8e b5       	in	r24, 0x2e	; 46

	SPDR = 0x27;               // Value to disable sleep mode
  f4:	87 e2       	ldi	r24, 0x27	; 39
  f6:	8e bd       	out	0x2e, r24	; 46
	while (!(SPSR & (1 << SPIF)));
  f8:	0d b4       	in	r0, 0x2d	; 45
  fa:	07 fe       	sbrs	r0, 7
  fc:	fd cf       	rjmp	.-6      	; 0xf8 <main+0x62>
	(void)SPDR;
  fe:	8e b5       	in	r24, 0x2e	; 46

	PORTB |= (1 << PORTB2);       // SS HIGH TO DESELECT SLAVE
 100:	85 b1       	in	r24, 0x05	; 5
 102:	84 60       	ori	r24, 0x04	; 4
 104:	85 b9       	out	0x05, r24	; 5
	#else
		//round up by default
		__ticks_dc = (uint32_t)(ceil(fabs(__tmp)));
	#endif

	__builtin_avr_delay_cycles(__ticks_dc);
 106:	3f ef       	ldi	r19, 0xFF	; 255
 108:	81 ee       	ldi	r24, 0xE1	; 225
 10a:	94 e0       	ldi	r25, 0x04	; 4
 10c:	31 50       	subi	r19, 0x01	; 1
 10e:	80 40       	sbci	r24, 0x00	; 0
 110:	90 40       	sbci	r25, 0x00	; 0
 112:	e1 f7       	brne	.-8      	; 0x10c <main+0x76>
 114:	00 c0       	rjmp	.+0      	; 0x116 <main+0x80>
 116:	00 00       	nop
	_delay_ms(100);
	
	//Read Temperature compensation values dig_T1,dig_T2,dig_T3.
	//Read dig_T1
	PORTB &= ~ (1 << PORTB2);
 118:	85 b1       	in	r24, 0x05	; 5
 11a:	8b 7f       	andi	r24, 0xFB	; 251
 11c:	85 b9       	out	0x05, r24	; 5
	SPDR = 0X88 | 0X80;
 11e:	88 e8       	ldi	r24, 0x88	; 136
 120:	8e bd       	out	0x2e, r24	; 46
	while (! (SPSR & (1 << SPIF)));
 122:	0d b4       	in	r0, 0x2d	; 45
 124:	07 fe       	sbrs	r0, 7
 126:	fd cf       	rjmp	.-6      	; 0x122 <main+0x8c>
	(void)SPDR;
 128:	8e b5       	in	r24, 0x2e	; 46
	// LSB (0x88)
	SPDR = 0x00;
 12a:	1e bc       	out	0x2e, r1	; 46
	while (! (SPSR & (1 << SPIF)));
 12c:	0d b4       	in	r0, 0x2d	; 45
 12e:	07 fe       	sbrs	r0, 7
 130:	fd cf       	rjmp	.-6      	; 0x12c <main+0x96>
	LSB = SPDR;
 132:	9e b5       	in	r25, 0x2e	; 46
	//MSB(0x89)
	SPDR = 0X00;
 134:	1e bc       	out	0x2e, r1	; 46
	while (! (SPSR & (1 << SPIF)));
 136:	0d b4       	in	r0, 0x2d	; 45
 138:	07 fe       	sbrs	r0, 7
 13a:	fd cf       	rjmp	.-6      	; 0x136 <main+0xa0>
	MSB = SPDR;
 13c:	0e b5       	in	r16, 0x2e	; 46
	// Pull SS high to deselect slave
	PORTB |= (1 << PORTB2);
 13e:	85 b1       	in	r24, 0x05	; 5
 140:	84 60       	ori	r24, 0x04	; 4
 142:	85 b9       	out	0x05, r24	; 5
	
	dig_T1 = ((uint16_t)MSB << 8) | ((uint16_t)LSB); //dig_T1 value
 144:	10 e0       	ldi	r17, 0x00	; 0
 146:	10 2f       	mov	r17, r16
 148:	00 27       	eor	r16, r16
 14a:	09 2b       	or	r16, r25
	
	//Read dig_T2
	PORTB &= ~ (1 << PORTB2);
 14c:	85 b1       	in	r24, 0x05	; 5
 14e:	8b 7f       	andi	r24, 0xFB	; 251
 150:	85 b9       	out	0x05, r24	; 5
	SPDR = 0X8A | 0X80;
 152:	8a e8       	ldi	r24, 0x8A	; 138
 154:	8e bd       	out	0x2e, r24	; 46
	while (! (SPSR & (1 << SPIF)));
 156:	0d b4       	in	r0, 0x2d	; 45
 158:	07 fe       	sbrs	r0, 7
 15a:	fd cf       	rjmp	.-6      	; 0x156 <main+0xc0>
	(void)SPDR;	
 15c:	8e b5       	in	r24, 0x2e	; 46
	// LSB (0x8A)
	SPDR = 0x00;
 15e:	1e bc       	out	0x2e, r1	; 46
	while (! (SPSR & (1 << SPIF)));
 160:	0d b4       	in	r0, 0x2d	; 45
 162:	07 fe       	sbrs	r0, 7
 164:	fd cf       	rjmp	.-6      	; 0x160 <main+0xca>
	LSB = SPDR;
 166:	9e b5       	in	r25, 0x2e	; 46
	//MSB(0x8B)
	SPDR = 0X00;
 168:	1e bc       	out	0x2e, r1	; 46
	while (! (SPSR & (1 << SPIF)));
 16a:	0d b4       	in	r0, 0x2d	; 45
 16c:	07 fe       	sbrs	r0, 7
 16e:	fd cf       	rjmp	.-6      	; 0x16a <main+0xd4>
	MSB = SPDR;	
 170:	2e b5       	in	r18, 0x2e	; 46
 172:	2a 83       	std	Y+2, r18	; 0x02
	// Pull SS high to deselect slave
	PORTB |= (1 << PORTB2);
 174:	85 b1       	in	r24, 0x05	; 5
 176:	84 60       	ori	r24, 0x04	; 4
 178:	85 b9       	out	0x05, r24	; 5
	
	dig_T2 = ((int16_t)MSB << 8) | ((int16_t)LSB); //dig_T2 value
 17a:	3a 81       	ldd	r19, Y+2	; 0x02
 17c:	23 2f       	mov	r18, r19
 17e:	30 e0       	ldi	r19, 0x00	; 0
 180:	32 2f       	mov	r19, r18
 182:	22 27       	eor	r18, r18
 184:	29 2b       	or	r18, r25
 186:	3c 83       	std	Y+4, r19	; 0x04
 188:	2b 83       	std	Y+3, r18	; 0x03
	
	//Read dig_T3
	PORTB &= ~ (1 << PORTB2);
 18a:	85 b1       	in	r24, 0x05	; 5
 18c:	8b 7f       	andi	r24, 0xFB	; 251
 18e:	85 b9       	out	0x05, r24	; 5
	SPDR = 0X8C | 0X80;
 190:	8c e8       	ldi	r24, 0x8C	; 140
 192:	8e bd       	out	0x2e, r24	; 46
	while (! (SPSR & (1 << SPIF)));
 194:	0d b4       	in	r0, 0x2d	; 45
 196:	07 fe       	sbrs	r0, 7
 198:	fd cf       	rjmp	.-6      	; 0x194 <main+0xfe>
	(void)SPDR;	
 19a:	8e b5       	in	r24, 0x2e	; 46
	// LSB (0x8C)
	SPDR = 0x00;
 19c:	1e bc       	out	0x2e, r1	; 46
	while (! (SPSR & (1 << SPIF)));
 19e:	0d b4       	in	r0, 0x2d	; 45
 1a0:	07 fe       	sbrs	r0, 7
 1a2:	fd cf       	rjmp	.-6      	; 0x19e <main+0x108>
	LSB = SPDR;
 1a4:	9e b5       	in	r25, 0x2e	; 46
	//MSB(0x8D)
	SPDR = 0X00;
 1a6:	1e bc       	out	0x2e, r1	; 46
	while (! (SPSR & (1 << SPIF)));
 1a8:	0d b4       	in	r0, 0x2d	; 45
 1aa:	07 fe       	sbrs	r0, 7
 1ac:	fd cf       	rjmp	.-6      	; 0x1a8 <main+0x112>
	MSB = SPDR;	
 1ae:	2e b4       	in	r2, 0x2e	; 46
	// Pull SS high to deselect slave
	PORTB |= (1 << PORTB2);
 1b0:	85 b1       	in	r24, 0x05	; 5
 1b2:	84 60       	ori	r24, 0x04	; 4
 1b4:	85 b9       	out	0x05, r24	; 5
	
	dig_T3 = ((int16_t)MSB << 8) | ((int16_t)LSB); //dig_T3 value
 1b6:	31 2c       	mov	r3, r1
 1b8:	32 2c       	mov	r3, r2
 1ba:	22 24       	eor	r2, r2
 1bc:	29 2a       	or	r2, r25
	
	while (1)
	{
		//To read temperature from BMP280
		
		PORTB &= ~ (1 << PORTB2);  // Pull SS low to select slave
 1be:	85 b1       	in	r24, 0x05	; 5
 1c0:	8b 7f       	andi	r24, 0xFB	; 251
 1c2:	85 b9       	out	0x05, r24	; 5
		// For read operation, MSB=1, hence OR register address with 0X80
		SPDR = 0XFA | 0X80;
 1c4:	8a ef       	ldi	r24, 0xFA	; 250
 1c6:	8e bd       	out	0x2e, r24	; 46
		// Wait until transmission is complete
		while (! (SPSR & (1 << SPIF)));
 1c8:	0d b4       	in	r0, 0x2d	; 45
 1ca:	07 fe       	sbrs	r0, 7
 1cc:	fd cf       	rjmp	.-6      	; 0x1c8 <main+0x132>
		//To reset SPIF bit, read the SPDR data (copy data to a variable)
		(void)SPDR; //Here we get random value stored in slave
 1ce:	8e b5       	in	r24, 0x2e	; 46
		
		//MSB(0xFA)
		SPDR = 0X00; //For reading the MSB, send 0X00 so that data from slave comes to master.
 1d0:	1e bc       	out	0x2e, r1	; 46
		// Wait until transmission is complete
		while (! (SPSR & (1 << SPIF)));
 1d2:	0d b4       	in	r0, 0x2d	; 45
 1d4:	07 fe       	sbrs	r0, 7
 1d6:	fd cf       	rjmp	.-6      	; 0x1d2 <main+0x13c>
		// Read MSB which is now in SPDR
		MSB = SPDR; 
 1d8:	8e b5       	in	r24, 0x2e	; 46
 1da:	90 e0       	ldi	r25, 0x00	; 0
 1dc:	a0 e0       	ldi	r26, 0x00	; 0
 1de:	b0 e0       	ldi	r27, 0x00	; 0
		
		// LSB (0xFB)
		SPDR = 0x00;
 1e0:	1e bc       	out	0x2e, r1	; 46
		while (! (SPSR & (1 << SPIF)));
 1e2:	0d b4       	in	r0, 0x2d	; 45
 1e4:	07 fe       	sbrs	r0, 7
 1e6:	fd cf       	rjmp	.-6      	; 0x1e2 <main+0x14c>
		LSB = SPDR;
 1e8:	4e b5       	in	r20, 0x2e	; 46
 1ea:	50 e0       	ldi	r21, 0x00	; 0
 1ec:	60 e0       	ldi	r22, 0x00	; 0
 1ee:	70 e0       	ldi	r23, 0x00	; 0

		// XLSB (0xFC)
		SPDR = 0x00;
 1f0:	1e bc       	out	0x2e, r1	; 46
		while (! (SPSR & (1 << SPIF)));
 1f2:	0d b4       	in	r0, 0x2d	; 45
 1f4:	07 fe       	sbrs	r0, 7
 1f6:	fd cf       	rjmp	.-6      	; 0x1f2 <main+0x15c>
		XLSB = SPDR;
 1f8:	ce b4       	in	r12, 0x2e	; 46
 1fa:	d1 2c       	mov	r13, r1
 1fc:	e1 2c       	mov	r14, r1
 1fe:	f1 2c       	mov	r15, r1
		
		// Pull SS high to deselect slave
		PORTB |= (1 << PORTB2);
 200:	25 b1       	in	r18, 0x05	; 5
 202:	24 60       	ori	r18, 0x04	; 4
 204:	25 b9       	out	0x05, r18	; 5
		
		// COMBINE TO GET 20 BIT TEMP VALUE
		raw_temp = ((uint32_t)MSB << 12) | ((uint32_t)LSB << 4) | ((uint32_t)XLSB >> 4);
 206:	07 2e       	mov	r0, r23
 208:	7c e0       	ldi	r23, 0x0C	; 12
 20a:	88 0f       	add	r24, r24
 20c:	99 1f       	adc	r25, r25
 20e:	aa 1f       	adc	r26, r26
 210:	bb 1f       	adc	r27, r27
 212:	7a 95       	dec	r23
 214:	d1 f7       	brne	.-12     	; 0x20a <main+0x174>
 216:	70 2d       	mov	r23, r0
 218:	44 0f       	add	r20, r20
 21a:	55 1f       	adc	r21, r21
 21c:	66 1f       	adc	r22, r22
 21e:	77 1f       	adc	r23, r23
 220:	44 0f       	add	r20, r20
 222:	55 1f       	adc	r21, r21
 224:	66 1f       	adc	r22, r22
 226:	77 1f       	adc	r23, r23
 228:	44 0f       	add	r20, r20
 22a:	55 1f       	adc	r21, r21
 22c:	66 1f       	adc	r22, r22
 22e:	77 1f       	adc	r23, r23
 230:	44 0f       	add	r20, r20
 232:	55 1f       	adc	r21, r21
 234:	66 1f       	adc	r22, r22
 236:	77 1f       	adc	r23, r23
 238:	84 2b       	or	r24, r20
 23a:	95 2b       	or	r25, r21
 23c:	a6 2b       	or	r26, r22
 23e:	b7 2b       	or	r27, r23
 240:	68 94       	set
 242:	13 f8       	bld	r1, 3
 244:	f6 94       	lsr	r15
 246:	e7 94       	ror	r14
 248:	d7 94       	ror	r13
 24a:	c7 94       	ror	r12
 24c:	16 94       	lsr	r1
 24e:	d1 f7       	brne	.-12     	; 0x244 <main+0x1ae>
 250:	bc 01       	movw	r22, r24
 252:	cd 01       	movw	r24, r26
 254:	6c 29       	or	r22, r12
 256:	7d 29       	or	r23, r13
 258:	8e 29       	or	r24, r14
 25a:	9f 29       	or	r25, r15
		
		UART_TxString("RAW TEMP = ");
		UART_TxNumber(raw_temp);
		UART_TxString("\r\n");*/
		
		var1 = (((raw_temp / 16384.0) - (dig_T1 / 1024.0)) * dig_T2);
 25c:	0e 94 27 03 	call	0x64e	; 0x64e <__floatunsisf>
 260:	4b 01       	movw	r8, r22
 262:	5c 01       	movw	r10, r24
 264:	20 e0       	ldi	r18, 0x00	; 0
 266:	30 e0       	ldi	r19, 0x00	; 0
 268:	40 e8       	ldi	r20, 0x80	; 128
 26a:	58 e3       	ldi	r21, 0x38	; 56
 26c:	0e 94 b5 03 	call	0x76a	; 0x76a <__mulsf3>
 270:	2b 01       	movw	r4, r22
 272:	3c 01       	movw	r6, r24
 274:	b8 01       	movw	r22, r16
 276:	80 e0       	ldi	r24, 0x00	; 0
 278:	90 e0       	ldi	r25, 0x00	; 0
 27a:	0e 94 27 03 	call	0x64e	; 0x64e <__floatunsisf>
 27e:	6b 01       	movw	r12, r22
 280:	7c 01       	movw	r14, r24
 282:	20 e0       	ldi	r18, 0x00	; 0
 284:	30 e0       	ldi	r19, 0x00	; 0
 286:	40 e8       	ldi	r20, 0x80	; 128
 288:	5a e3       	ldi	r21, 0x3A	; 58
 28a:	0e 94 b5 03 	call	0x76a	; 0x76a <__mulsf3>
 28e:	9b 01       	movw	r18, r22
 290:	ac 01       	movw	r20, r24
 292:	c3 01       	movw	r24, r6
 294:	b2 01       	movw	r22, r4
 296:	0e 94 12 02 	call	0x424	; 0x424 <__subsf3>
 29a:	2b 01       	movw	r4, r22
 29c:	3c 01       	movw	r6, r24
 29e:	2b 81       	ldd	r18, Y+3	; 0x03
 2a0:	3c 81       	ldd	r19, Y+4	; 0x04
 2a2:	b9 01       	movw	r22, r18
 2a4:	33 0f       	add	r19, r19
 2a6:	88 0b       	sbc	r24, r24
 2a8:	99 0b       	sbc	r25, r25
 2aa:	0e 94 29 03 	call	0x652	; 0x652 <__floatsisf>
 2ae:	a3 01       	movw	r20, r6
 2b0:	92 01       	movw	r18, r4
 2b2:	0e 94 b5 03 	call	0x76a	; 0x76a <__mulsf3>
 2b6:	2b 01       	movw	r4, r22
 2b8:	3c 01       	movw	r6, r24
		var2 = ((((raw_temp / 131072.0) - (dig_T1 / 8192.0))) * dig_T3);
 2ba:	20 e0       	ldi	r18, 0x00	; 0
 2bc:	30 e0       	ldi	r19, 0x00	; 0
 2be:	40 e0       	ldi	r20, 0x00	; 0
 2c0:	57 e3       	ldi	r21, 0x37	; 55
 2c2:	c5 01       	movw	r24, r10
 2c4:	b4 01       	movw	r22, r8
 2c6:	0e 94 b5 03 	call	0x76a	; 0x76a <__mulsf3>
 2ca:	4b 01       	movw	r8, r22
 2cc:	5c 01       	movw	r10, r24
 2ce:	20 e0       	ldi	r18, 0x00	; 0
 2d0:	30 e0       	ldi	r19, 0x00	; 0
 2d2:	40 e0       	ldi	r20, 0x00	; 0
 2d4:	59 e3       	ldi	r21, 0x39	; 57
 2d6:	c7 01       	movw	r24, r14
 2d8:	b6 01       	movw	r22, r12
 2da:	0e 94 b5 03 	call	0x76a	; 0x76a <__mulsf3>
 2de:	9b 01       	movw	r18, r22
 2e0:	ac 01       	movw	r20, r24
 2e2:	c5 01       	movw	r24, r10
 2e4:	b4 01       	movw	r22, r8
 2e6:	0e 94 12 02 	call	0x424	; 0x424 <__subsf3>
 2ea:	6b 01       	movw	r12, r22
 2ec:	7c 01       	movw	r14, r24
 2ee:	b1 01       	movw	r22, r2
 2f0:	03 2c       	mov	r0, r3
 2f2:	00 0c       	add	r0, r0
 2f4:	88 0b       	sbc	r24, r24
 2f6:	99 0b       	sbc	r25, r25
 2f8:	0e 94 29 03 	call	0x652	; 0x652 <__floatsisf>
 2fc:	a7 01       	movw	r20, r14
 2fe:	96 01       	movw	r18, r12
 300:	0e 94 b5 03 	call	0x76a	; 0x76a <__mulsf3>
 304:	9b 01       	movw	r18, r22
 306:	ac 01       	movw	r20, r24
		temp_final = var1 + var2;
 308:	c3 01       	movw	r24, r6
 30a:	b2 01       	movw	r22, r4
 30c:	0e 94 13 02 	call	0x426	; 0x426 <__addsf3>
		temp = temp_final / 5120.0;
 310:	20 e0       	ldi	r18, 0x00	; 0
 312:	30 e0       	ldi	r19, 0x00	; 0
 314:	40 ea       	ldi	r20, 0xA0	; 160
 316:	55 e4       	ldi	r21, 0x45	; 69
 318:	0e 94 7f 02 	call	0x4fe	; 0x4fe <__divsf3>
 31c:	6b 01       	movw	r12, r22
 31e:	7c 01       	movw	r14, r24
		
		UART_TxString("TEMP = ");
 320:	80 e0       	ldi	r24, 0x00	; 0
 322:	91 e0       	ldi	r25, 0x01	; 1
 324:	0e 94 e8 01 	call	0x3d0	; 0x3d0 <UART_TxString>
		int temp_int = (int)temp;
 328:	c7 01       	movw	r24, r14
 32a:	b6 01       	movw	r22, r12
 32c:	0e 94 f1 02 	call	0x5e2	; 0x5e2 <__fixsfsi>
		int temp_frac = ((temp - temp_int) * 100);
 330:	4b 01       	movw	r8, r22
 332:	77 0f       	add	r23, r23
 334:	aa 08       	sbc	r10, r10
 336:	bb 08       	sbc	r11, r11
 338:	c5 01       	movw	r24, r10
 33a:	b4 01       	movw	r22, r8
 33c:	0e 94 29 03 	call	0x652	; 0x652 <__floatsisf>
 340:	9b 01       	movw	r18, r22
 342:	ac 01       	movw	r20, r24
 344:	c7 01       	movw	r24, r14
 346:	b6 01       	movw	r22, r12
 348:	0e 94 12 02 	call	0x424	; 0x424 <__subsf3>
 34c:	20 e0       	ldi	r18, 0x00	; 0
 34e:	30 e0       	ldi	r19, 0x00	; 0
 350:	48 ec       	ldi	r20, 0xC8	; 200
 352:	52 e4       	ldi	r21, 0x42	; 66
 354:	0e 94 b5 03 	call	0x76a	; 0x76a <__mulsf3>
 358:	0e 94 f1 02 	call	0x5e2	; 0x5e2 <__fixsfsi>
 35c:	6b 01       	movw	r12, r22
 35e:	7c 01       	movw	r14, r24
		UART_TxNumber(temp_int);
 360:	c5 01       	movw	r24, r10
 362:	b4 01       	movw	r22, r8
 364:	0e 94 f5 01 	call	0x3ea	; 0x3ea <UART_TxNumber>
		UART_TxChar('.');
 368:	8e e2       	ldi	r24, 0x2E	; 46
 36a:	0e 94 e1 01 	call	0x3c2	; 0x3c2 <UART_TxChar>
		UART_TxNumber(temp_frac);
 36e:	b6 01       	movw	r22, r12
 370:	dd 0c       	add	r13, r13
 372:	88 0b       	sbc	r24, r24
 374:	99 0b       	sbc	r25, r25
 376:	0e 94 f5 01 	call	0x3ea	; 0x3ea <UART_TxNumber>
		UART_TxString(" C\r\n");
 37a:	88 e0       	ldi	r24, 0x08	; 8
 37c:	91 e0       	ldi	r25, 0x01	; 1
 37e:	0e 94 e8 01 	call	0x3d0	; 0x3d0 <UART_TxString>
		
        //Turn LED ON if chip id is 0x58
		if (chip_id == 0x58)
 382:	39 81       	ldd	r19, Y+1	; 0x01
 384:	38 35       	cpi	r19, 0x58	; 88
 386:	21 f4       	brne	.+8      	; 0x390 <main+0x2fa>
		{
			// Turn LED ON
			PORTB |= (1 << PORTB0);
 388:	85 b1       	in	r24, 0x05	; 5
 38a:	81 60       	ori	r24, 0x01	; 1
 38c:	85 b9       	out	0x05, r24	; 5
 38e:	03 c0       	rjmp	.+6      	; 0x396 <main+0x300>
		}
		else
		{
			// Turn LED OFF
			PORTB &= ~ (1 << PORTB0);
 390:	85 b1       	in	r24, 0x05	; 5
 392:	8e 7f       	andi	r24, 0xFE	; 254
 394:	85 b9       	out	0x05, r24	; 5
 396:	8f ef       	ldi	r24, 0xFF	; 255
 398:	93 ed       	ldi	r25, 0xD3	; 211
 39a:	20 e3       	ldi	r18, 0x30	; 48
 39c:	81 50       	subi	r24, 0x01	; 1
 39e:	90 40       	sbci	r25, 0x00	; 0
 3a0:	20 40       	sbci	r18, 0x00	; 0
 3a2:	e1 f7       	brne	.-8      	; 0x39c <main+0x306>
 3a4:	00 c0       	rjmp	.+0      	; 0x3a6 <main+0x310>
 3a6:	00 00       	nop
 3a8:	0a cf       	rjmp	.-492    	; 0x1be <main+0x128>

000003aa <UART_Init>:
	hex[2] = '\r';
	hex[3] = '\n';
	hex[4] = '\0';
	UART_TxString("0x");
	UART_TxString(hex);
}
 3aa:	10 92 c5 00 	sts	0x00C5, r1	; 0x8000c5 <__TEXT_REGION_LENGTH__+0x7f80c5>
 3ae:	87 e6       	ldi	r24, 0x67	; 103
 3b0:	80 93 c4 00 	sts	0x00C4, r24	; 0x8000c4 <__TEXT_REGION_LENGTH__+0x7f80c4>
 3b4:	88 e0       	ldi	r24, 0x08	; 8
 3b6:	80 93 c1 00 	sts	0x00C1, r24	; 0x8000c1 <__TEXT_REGION_LENGTH__+0x7f80c1>
 3ba:	86 e0       	ldi	r24, 0x06	; 6
 3bc:	80 93 c2 00 	sts	0x00C2, r24	; 0x8000c2 <__TEXT_REGION_LENGTH__+0x7f80c2>
 3c0:	08 95       	ret

000003c2 <UART_TxChar>:
 3c2:	90 91 c0 00 	lds	r25, 0x00C0	; 0x8000c0 <__TEXT_REGION_LENGTH__+0x7f80c0>
 3c6:	95 ff       	sbrs	r25, 5
 3c8:	fc cf       	rjmp	.-8      	; 0x3c2 <UART_TxChar>
 3ca:	80 93 c6 00 	sts	0x00C6, r24	; 0x8000c6 <__TEXT_REGION_LENGTH__+0x7f80c6>
 3ce:	08 95       	ret

000003d0 <UART_TxString>:
 3d0:	cf 93       	push	r28
 3d2:	df 93       	push	r29
 3d4:	ec 01       	movw	r28, r24
 3d6:	03 c0       	rjmp	.+6      	; 0x3de <UART_TxString+0xe>
 3d8:	21 96       	adiw	r28, 0x01	; 1
 3da:	0e 94 e1 01 	call	0x3c2	; 0x3c2 <UART_TxChar>
 3de:	88 81       	ld	r24, Y
 3e0:	81 11       	cpse	r24, r1
 3e2:	fa cf       	rjmp	.-12     	; 0x3d8 <UART_TxString+0x8>
 3e4:	df 91       	pop	r29
 3e6:	cf 91       	pop	r28
 3e8:	08 95       	ret

000003ea <UART_TxNumber>:
void UART_TxNumber(uint32_t num)
{
 3ea:	cf 93       	push	r28
 3ec:	df 93       	push	r29
 3ee:	cd b7       	in	r28, 0x3d	; 61
 3f0:	de b7       	in	r29, 0x3e	; 62
 3f2:	2c 97       	sbiw	r28, 0x0c	; 12
 3f4:	0f b6       	in	r0, 0x3f	; 63
 3f6:	f8 94       	cli
 3f8:	de bf       	out	0x3e, r29	; 62
 3fa:	0f be       	out	0x3f, r0	; 63
 3fc:	cd bf       	out	0x3d, r28	; 61
    } else if (__radix < 2 || __radix > 36) {
	*__s = 0;
	return __s;
    } else {
	extern char *__ltoa_ncheck (long, char *, unsigned char);
	return __ltoa_ncheck (__val, __s, __radix);
 3fe:	2a e0       	ldi	r18, 0x0A	; 10
 400:	ae 01       	movw	r20, r28
 402:	4f 5f       	subi	r20, 0xFF	; 255
 404:	5f 4f       	sbci	r21, 0xFF	; 255
 406:	0e 94 22 04 	call	0x844	; 0x844 <__ltoa_ncheck>
	char buffer[12];
	ltoa(num, buffer, 10);   // convert to string (long to ASCII)
	UART_TxString(buffer);
 40a:	ce 01       	movw	r24, r28
 40c:	01 96       	adiw	r24, 0x01	; 1
 40e:	0e 94 e8 01 	call	0x3d0	; 0x3d0 <UART_TxString>
 412:	2c 96       	adiw	r28, 0x0c	; 12
 414:	0f b6       	in	r0, 0x3f	; 63
 416:	f8 94       	cli
 418:	de bf       	out	0x3e, r29	; 62
 41a:	0f be       	out	0x3f, r0	; 63
 41c:	cd bf       	out	0x3d, r28	; 61
 41e:	df 91       	pop	r29
 420:	cf 91       	pop	r28
 422:	08 95       	ret

00000424 <__subsf3>:
 424:	50 58       	subi	r21, 0x80	; 128

00000426 <__addsf3>:
 426:	bb 27       	eor	r27, r27
 428:	aa 27       	eor	r26, r26
 42a:	0e 94 2a 02 	call	0x454	; 0x454 <__addsf3x>
 42e:	0c 94 7b 03 	jmp	0x6f6	; 0x6f6 <__fp_round>
 432:	0e 94 6d 03 	call	0x6da	; 0x6da <__fp_pscA>
 436:	38 f0       	brcs	.+14     	; 0x446 <__addsf3+0x20>
 438:	0e 94 74 03 	call	0x6e8	; 0x6e8 <__fp_pscB>
 43c:	20 f0       	brcs	.+8      	; 0x446 <__addsf3+0x20>
 43e:	39 f4       	brne	.+14     	; 0x44e <__addsf3+0x28>
 440:	9f 3f       	cpi	r25, 0xFF	; 255
 442:	19 f4       	brne	.+6      	; 0x44a <__addsf3+0x24>
 444:	26 f4       	brtc	.+8      	; 0x44e <__addsf3+0x28>
 446:	0c 94 6a 03 	jmp	0x6d4	; 0x6d4 <__fp_nan>
 44a:	0e f4       	brtc	.+2      	; 0x44e <__addsf3+0x28>
 44c:	e0 95       	com	r30
 44e:	e7 fb       	bst	r30, 7
 450:	0c 94 64 03 	jmp	0x6c8	; 0x6c8 <__fp_inf>

00000454 <__addsf3x>:
 454:	e9 2f       	mov	r30, r25
 456:	0e 94 8c 03 	call	0x718	; 0x718 <__fp_split3>
 45a:	58 f3       	brcs	.-42     	; 0x432 <__addsf3+0xc>
 45c:	ba 17       	cp	r27, r26
 45e:	62 07       	cpc	r22, r18
 460:	73 07       	cpc	r23, r19
 462:	84 07       	cpc	r24, r20
 464:	95 07       	cpc	r25, r21
 466:	20 f0       	brcs	.+8      	; 0x470 <__addsf3x+0x1c>
 468:	79 f4       	brne	.+30     	; 0x488 <__addsf3x+0x34>
 46a:	a6 f5       	brtc	.+104    	; 0x4d4 <__addsf3x+0x80>
 46c:	0c 94 ae 03 	jmp	0x75c	; 0x75c <__fp_zero>
 470:	0e f4       	brtc	.+2      	; 0x474 <__addsf3x+0x20>
 472:	e0 95       	com	r30
 474:	0b 2e       	mov	r0, r27
 476:	ba 2f       	mov	r27, r26
 478:	a0 2d       	mov	r26, r0
 47a:	0b 01       	movw	r0, r22
 47c:	b9 01       	movw	r22, r18
 47e:	90 01       	movw	r18, r0
 480:	0c 01       	movw	r0, r24
 482:	ca 01       	movw	r24, r20
 484:	a0 01       	movw	r20, r0
 486:	11 24       	eor	r1, r1
 488:	ff 27       	eor	r31, r31
 48a:	59 1b       	sub	r21, r25
 48c:	99 f0       	breq	.+38     	; 0x4b4 <__addsf3x+0x60>
 48e:	59 3f       	cpi	r21, 0xF9	; 249
 490:	50 f4       	brcc	.+20     	; 0x4a6 <__addsf3x+0x52>
 492:	50 3e       	cpi	r21, 0xE0	; 224
 494:	68 f1       	brcs	.+90     	; 0x4f0 <__addsf3x+0x9c>
 496:	1a 16       	cp	r1, r26
 498:	f0 40       	sbci	r31, 0x00	; 0
 49a:	a2 2f       	mov	r26, r18
 49c:	23 2f       	mov	r18, r19
 49e:	34 2f       	mov	r19, r20
 4a0:	44 27       	eor	r20, r20
 4a2:	58 5f       	subi	r21, 0xF8	; 248
 4a4:	f3 cf       	rjmp	.-26     	; 0x48c <__addsf3x+0x38>
 4a6:	46 95       	lsr	r20
 4a8:	37 95       	ror	r19
 4aa:	27 95       	ror	r18
 4ac:	a7 95       	ror	r26
 4ae:	f0 40       	sbci	r31, 0x00	; 0
 4b0:	53 95       	inc	r21
 4b2:	c9 f7       	brne	.-14     	; 0x4a6 <__addsf3x+0x52>
 4b4:	7e f4       	brtc	.+30     	; 0x4d4 <__addsf3x+0x80>
 4b6:	1f 16       	cp	r1, r31
 4b8:	ba 0b       	sbc	r27, r26
 4ba:	62 0b       	sbc	r22, r18
 4bc:	73 0b       	sbc	r23, r19
 4be:	84 0b       	sbc	r24, r20
 4c0:	ba f0       	brmi	.+46     	; 0x4f0 <__addsf3x+0x9c>
 4c2:	91 50       	subi	r25, 0x01	; 1
 4c4:	a1 f0       	breq	.+40     	; 0x4ee <__addsf3x+0x9a>
 4c6:	ff 0f       	add	r31, r31
 4c8:	bb 1f       	adc	r27, r27
 4ca:	66 1f       	adc	r22, r22
 4cc:	77 1f       	adc	r23, r23
 4ce:	88 1f       	adc	r24, r24
 4d0:	c2 f7       	brpl	.-16     	; 0x4c2 <__addsf3x+0x6e>
 4d2:	0e c0       	rjmp	.+28     	; 0x4f0 <__addsf3x+0x9c>
 4d4:	ba 0f       	add	r27, r26
 4d6:	62 1f       	adc	r22, r18
 4d8:	73 1f       	adc	r23, r19
 4da:	84 1f       	adc	r24, r20
 4dc:	48 f4       	brcc	.+18     	; 0x4f0 <__addsf3x+0x9c>
 4de:	87 95       	ror	r24
 4e0:	77 95       	ror	r23
 4e2:	67 95       	ror	r22
 4e4:	b7 95       	ror	r27
 4e6:	f7 95       	ror	r31
 4e8:	9e 3f       	cpi	r25, 0xFE	; 254
 4ea:	08 f0       	brcs	.+2      	; 0x4ee <__addsf3x+0x9a>
 4ec:	b0 cf       	rjmp	.-160    	; 0x44e <__addsf3+0x28>
 4ee:	93 95       	inc	r25
 4f0:	88 0f       	add	r24, r24
 4f2:	08 f0       	brcs	.+2      	; 0x4f6 <__addsf3x+0xa2>
 4f4:	99 27       	eor	r25, r25
 4f6:	ee 0f       	add	r30, r30
 4f8:	97 95       	ror	r25
 4fa:	87 95       	ror	r24
 4fc:	08 95       	ret

000004fe <__divsf3>:
 4fe:	0e 94 93 02 	call	0x526	; 0x526 <__divsf3x>
 502:	0c 94 7b 03 	jmp	0x6f6	; 0x6f6 <__fp_round>
 506:	0e 94 74 03 	call	0x6e8	; 0x6e8 <__fp_pscB>
 50a:	58 f0       	brcs	.+22     	; 0x522 <__divsf3+0x24>
 50c:	0e 94 6d 03 	call	0x6da	; 0x6da <__fp_pscA>
 510:	40 f0       	brcs	.+16     	; 0x522 <__divsf3+0x24>
 512:	29 f4       	brne	.+10     	; 0x51e <__divsf3+0x20>
 514:	5f 3f       	cpi	r21, 0xFF	; 255
 516:	29 f0       	breq	.+10     	; 0x522 <__divsf3+0x24>
 518:	0c 94 64 03 	jmp	0x6c8	; 0x6c8 <__fp_inf>
 51c:	51 11       	cpse	r21, r1
 51e:	0c 94 af 03 	jmp	0x75e	; 0x75e <__fp_szero>
 522:	0c 94 6a 03 	jmp	0x6d4	; 0x6d4 <__fp_nan>

00000526 <__divsf3x>:
 526:	0e 94 8c 03 	call	0x718	; 0x718 <__fp_split3>
 52a:	68 f3       	brcs	.-38     	; 0x506 <__divsf3+0x8>

0000052c <__divsf3_pse>:
 52c:	99 23       	and	r25, r25
 52e:	b1 f3       	breq	.-20     	; 0x51c <__divsf3+0x1e>
 530:	55 23       	and	r21, r21
 532:	91 f3       	breq	.-28     	; 0x518 <__divsf3+0x1a>
 534:	95 1b       	sub	r25, r21
 536:	55 0b       	sbc	r21, r21
 538:	bb 27       	eor	r27, r27
 53a:	aa 27       	eor	r26, r26
 53c:	62 17       	cp	r22, r18
 53e:	73 07       	cpc	r23, r19
 540:	84 07       	cpc	r24, r20
 542:	38 f0       	brcs	.+14     	; 0x552 <__divsf3_pse+0x26>
 544:	9f 5f       	subi	r25, 0xFF	; 255
 546:	5f 4f       	sbci	r21, 0xFF	; 255
 548:	22 0f       	add	r18, r18
 54a:	33 1f       	adc	r19, r19
 54c:	44 1f       	adc	r20, r20
 54e:	aa 1f       	adc	r26, r26
 550:	a9 f3       	breq	.-22     	; 0x53c <__divsf3_pse+0x10>
 552:	35 d0       	rcall	.+106    	; 0x5be <__divsf3_pse+0x92>
 554:	0e 2e       	mov	r0, r30
 556:	3a f0       	brmi	.+14     	; 0x566 <__divsf3_pse+0x3a>
 558:	e0 e8       	ldi	r30, 0x80	; 128
 55a:	32 d0       	rcall	.+100    	; 0x5c0 <__divsf3_pse+0x94>
 55c:	91 50       	subi	r25, 0x01	; 1
 55e:	50 40       	sbci	r21, 0x00	; 0
 560:	e6 95       	lsr	r30
 562:	00 1c       	adc	r0, r0
 564:	ca f7       	brpl	.-14     	; 0x558 <__divsf3_pse+0x2c>
 566:	2b d0       	rcall	.+86     	; 0x5be <__divsf3_pse+0x92>
 568:	fe 2f       	mov	r31, r30
 56a:	29 d0       	rcall	.+82     	; 0x5be <__divsf3_pse+0x92>
 56c:	66 0f       	add	r22, r22
 56e:	77 1f       	adc	r23, r23
 570:	88 1f       	adc	r24, r24
 572:	bb 1f       	adc	r27, r27
 574:	26 17       	cp	r18, r22
 576:	37 07       	cpc	r19, r23
 578:	48 07       	cpc	r20, r24
 57a:	ab 07       	cpc	r26, r27
 57c:	b0 e8       	ldi	r27, 0x80	; 128
 57e:	09 f0       	breq	.+2      	; 0x582 <__divsf3_pse+0x56>
 580:	bb 0b       	sbc	r27, r27
 582:	80 2d       	mov	r24, r0
 584:	bf 01       	movw	r22, r30
 586:	ff 27       	eor	r31, r31
 588:	93 58       	subi	r25, 0x83	; 131
 58a:	5f 4f       	sbci	r21, 0xFF	; 255
 58c:	3a f0       	brmi	.+14     	; 0x59c <__divsf3_pse+0x70>
 58e:	9e 3f       	cpi	r25, 0xFE	; 254
 590:	51 05       	cpc	r21, r1
 592:	78 f0       	brcs	.+30     	; 0x5b2 <__divsf3_pse+0x86>
 594:	0c 94 64 03 	jmp	0x6c8	; 0x6c8 <__fp_inf>
 598:	0c 94 af 03 	jmp	0x75e	; 0x75e <__fp_szero>
 59c:	5f 3f       	cpi	r21, 0xFF	; 255
 59e:	e4 f3       	brlt	.-8      	; 0x598 <__divsf3_pse+0x6c>
 5a0:	98 3e       	cpi	r25, 0xE8	; 232
 5a2:	d4 f3       	brlt	.-12     	; 0x598 <__divsf3_pse+0x6c>
 5a4:	86 95       	lsr	r24
 5a6:	77 95       	ror	r23
 5a8:	67 95       	ror	r22
 5aa:	b7 95       	ror	r27
 5ac:	f7 95       	ror	r31
 5ae:	9f 5f       	subi	r25, 0xFF	; 255
 5b0:	c9 f7       	brne	.-14     	; 0x5a4 <__divsf3_pse+0x78>
 5b2:	88 0f       	add	r24, r24
 5b4:	91 1d       	adc	r25, r1
 5b6:	96 95       	lsr	r25
 5b8:	87 95       	ror	r24
 5ba:	97 f9       	bld	r25, 7
 5bc:	08 95       	ret
 5be:	e1 e0       	ldi	r30, 0x01	; 1
 5c0:	66 0f       	add	r22, r22
 5c2:	77 1f       	adc	r23, r23
 5c4:	88 1f       	adc	r24, r24
 5c6:	bb 1f       	adc	r27, r27
 5c8:	62 17       	cp	r22, r18
 5ca:	73 07       	cpc	r23, r19
 5cc:	84 07       	cpc	r24, r20
 5ce:	ba 07       	cpc	r27, r26
 5d0:	20 f0       	brcs	.+8      	; 0x5da <__divsf3_pse+0xae>
 5d2:	62 1b       	sub	r22, r18
 5d4:	73 0b       	sbc	r23, r19
 5d6:	84 0b       	sbc	r24, r20
 5d8:	ba 0b       	sbc	r27, r26
 5da:	ee 1f       	adc	r30, r30
 5dc:	88 f7       	brcc	.-30     	; 0x5c0 <__divsf3_pse+0x94>
 5de:	e0 95       	com	r30
 5e0:	08 95       	ret

000005e2 <__fixsfsi>:
 5e2:	0e 94 f8 02 	call	0x5f0	; 0x5f0 <__fixunssfsi>
 5e6:	68 94       	set
 5e8:	b1 11       	cpse	r27, r1
 5ea:	0c 94 af 03 	jmp	0x75e	; 0x75e <__fp_szero>
 5ee:	08 95       	ret

000005f0 <__fixunssfsi>:
 5f0:	0e 94 94 03 	call	0x728	; 0x728 <__fp_splitA>
 5f4:	88 f0       	brcs	.+34     	; 0x618 <__fixunssfsi+0x28>
 5f6:	9f 57       	subi	r25, 0x7F	; 127
 5f8:	98 f0       	brcs	.+38     	; 0x620 <__fixunssfsi+0x30>
 5fa:	b9 2f       	mov	r27, r25
 5fc:	99 27       	eor	r25, r25
 5fe:	b7 51       	subi	r27, 0x17	; 23
 600:	b0 f0       	brcs	.+44     	; 0x62e <__fixunssfsi+0x3e>
 602:	e1 f0       	breq	.+56     	; 0x63c <__fixunssfsi+0x4c>
 604:	66 0f       	add	r22, r22
 606:	77 1f       	adc	r23, r23
 608:	88 1f       	adc	r24, r24
 60a:	99 1f       	adc	r25, r25
 60c:	1a f0       	brmi	.+6      	; 0x614 <__fixunssfsi+0x24>
 60e:	ba 95       	dec	r27
 610:	c9 f7       	brne	.-14     	; 0x604 <__fixunssfsi+0x14>
 612:	14 c0       	rjmp	.+40     	; 0x63c <__fixunssfsi+0x4c>
 614:	b1 30       	cpi	r27, 0x01	; 1
 616:	91 f0       	breq	.+36     	; 0x63c <__fixunssfsi+0x4c>
 618:	0e 94 ae 03 	call	0x75c	; 0x75c <__fp_zero>
 61c:	b1 e0       	ldi	r27, 0x01	; 1
 61e:	08 95       	ret
 620:	0c 94 ae 03 	jmp	0x75c	; 0x75c <__fp_zero>
 624:	67 2f       	mov	r22, r23
 626:	78 2f       	mov	r23, r24
 628:	88 27       	eor	r24, r24
 62a:	b8 5f       	subi	r27, 0xF8	; 248
 62c:	39 f0       	breq	.+14     	; 0x63c <__fixunssfsi+0x4c>
 62e:	b9 3f       	cpi	r27, 0xF9	; 249
 630:	cc f3       	brlt	.-14     	; 0x624 <__fixunssfsi+0x34>
 632:	86 95       	lsr	r24
 634:	77 95       	ror	r23
 636:	67 95       	ror	r22
 638:	b3 95       	inc	r27
 63a:	d9 f7       	brne	.-10     	; 0x632 <__fixunssfsi+0x42>
 63c:	3e f4       	brtc	.+14     	; 0x64c <__fixunssfsi+0x5c>
 63e:	90 95       	com	r25
 640:	80 95       	com	r24
 642:	70 95       	com	r23
 644:	61 95       	neg	r22
 646:	7f 4f       	sbci	r23, 0xFF	; 255
 648:	8f 4f       	sbci	r24, 0xFF	; 255
 64a:	9f 4f       	sbci	r25, 0xFF	; 255
 64c:	08 95       	ret

0000064e <__floatunsisf>:
 64e:	e8 94       	clt
 650:	09 c0       	rjmp	.+18     	; 0x664 <__floatsisf+0x12>

00000652 <__floatsisf>:
 652:	97 fb       	bst	r25, 7
 654:	3e f4       	brtc	.+14     	; 0x664 <__floatsisf+0x12>
 656:	90 95       	com	r25
 658:	80 95       	com	r24
 65a:	70 95       	com	r23
 65c:	61 95       	neg	r22
 65e:	7f 4f       	sbci	r23, 0xFF	; 255
 660:	8f 4f       	sbci	r24, 0xFF	; 255
 662:	9f 4f       	sbci	r25, 0xFF	; 255
 664:	99 23       	and	r25, r25
 666:	a9 f0       	breq	.+42     	; 0x692 <__floatsisf+0x40>
 668:	f9 2f       	mov	r31, r25
 66a:	96 e9       	ldi	r25, 0x96	; 150
 66c:	bb 27       	eor	r27, r27
 66e:	93 95       	inc	r25
 670:	f6 95       	lsr	r31
 672:	87 95       	ror	r24
 674:	77 95       	ror	r23
 676:	67 95       	ror	r22
 678:	b7 95       	ror	r27
 67a:	f1 11       	cpse	r31, r1
 67c:	f8 cf       	rjmp	.-16     	; 0x66e <__floatsisf+0x1c>
 67e:	fa f4       	brpl	.+62     	; 0x6be <__floatsisf+0x6c>
 680:	bb 0f       	add	r27, r27
 682:	11 f4       	brne	.+4      	; 0x688 <__floatsisf+0x36>
 684:	60 ff       	sbrs	r22, 0
 686:	1b c0       	rjmp	.+54     	; 0x6be <__floatsisf+0x6c>
 688:	6f 5f       	subi	r22, 0xFF	; 255
 68a:	7f 4f       	sbci	r23, 0xFF	; 255
 68c:	8f 4f       	sbci	r24, 0xFF	; 255
 68e:	9f 4f       	sbci	r25, 0xFF	; 255
 690:	16 c0       	rjmp	.+44     	; 0x6be <__floatsisf+0x6c>
 692:	88 23       	and	r24, r24
 694:	11 f0       	breq	.+4      	; 0x69a <__floatsisf+0x48>
 696:	96 e9       	ldi	r25, 0x96	; 150
 698:	11 c0       	rjmp	.+34     	; 0x6bc <__floatsisf+0x6a>
 69a:	77 23       	and	r23, r23
 69c:	21 f0       	breq	.+8      	; 0x6a6 <__floatsisf+0x54>
 69e:	9e e8       	ldi	r25, 0x8E	; 142
 6a0:	87 2f       	mov	r24, r23
 6a2:	76 2f       	mov	r23, r22
 6a4:	05 c0       	rjmp	.+10     	; 0x6b0 <__floatsisf+0x5e>
 6a6:	66 23       	and	r22, r22
 6a8:	71 f0       	breq	.+28     	; 0x6c6 <__floatsisf+0x74>
 6aa:	96 e8       	ldi	r25, 0x86	; 134
 6ac:	86 2f       	mov	r24, r22
 6ae:	70 e0       	ldi	r23, 0x00	; 0
 6b0:	60 e0       	ldi	r22, 0x00	; 0
 6b2:	2a f0       	brmi	.+10     	; 0x6be <__floatsisf+0x6c>
 6b4:	9a 95       	dec	r25
 6b6:	66 0f       	add	r22, r22
 6b8:	77 1f       	adc	r23, r23
 6ba:	88 1f       	adc	r24, r24
 6bc:	da f7       	brpl	.-10     	; 0x6b4 <__floatsisf+0x62>
 6be:	88 0f       	add	r24, r24
 6c0:	96 95       	lsr	r25
 6c2:	87 95       	ror	r24
 6c4:	97 f9       	bld	r25, 7
 6c6:	08 95       	ret

000006c8 <__fp_inf>:
 6c8:	97 f9       	bld	r25, 7
 6ca:	9f 67       	ori	r25, 0x7F	; 127
 6cc:	80 e8       	ldi	r24, 0x80	; 128
 6ce:	70 e0       	ldi	r23, 0x00	; 0
 6d0:	60 e0       	ldi	r22, 0x00	; 0
 6d2:	08 95       	ret

000006d4 <__fp_nan>:
 6d4:	9f ef       	ldi	r25, 0xFF	; 255
 6d6:	80 ec       	ldi	r24, 0xC0	; 192
 6d8:	08 95       	ret

000006da <__fp_pscA>:
 6da:	00 24       	eor	r0, r0
 6dc:	0a 94       	dec	r0
 6de:	16 16       	cp	r1, r22
 6e0:	17 06       	cpc	r1, r23
 6e2:	18 06       	cpc	r1, r24
 6e4:	09 06       	cpc	r0, r25
 6e6:	08 95       	ret

000006e8 <__fp_pscB>:
 6e8:	00 24       	eor	r0, r0
 6ea:	0a 94       	dec	r0
 6ec:	12 16       	cp	r1, r18
 6ee:	13 06       	cpc	r1, r19
 6f0:	14 06       	cpc	r1, r20
 6f2:	05 06       	cpc	r0, r21
 6f4:	08 95       	ret

000006f6 <__fp_round>:
 6f6:	09 2e       	mov	r0, r25
 6f8:	03 94       	inc	r0
 6fa:	00 0c       	add	r0, r0
 6fc:	11 f4       	brne	.+4      	; 0x702 <__fp_round+0xc>
 6fe:	88 23       	and	r24, r24
 700:	52 f0       	brmi	.+20     	; 0x716 <__fp_round+0x20>
 702:	bb 0f       	add	r27, r27
 704:	40 f4       	brcc	.+16     	; 0x716 <__fp_round+0x20>
 706:	bf 2b       	or	r27, r31
 708:	11 f4       	brne	.+4      	; 0x70e <__fp_round+0x18>
 70a:	60 ff       	sbrs	r22, 0
 70c:	04 c0       	rjmp	.+8      	; 0x716 <__fp_round+0x20>
 70e:	6f 5f       	subi	r22, 0xFF	; 255
 710:	7f 4f       	sbci	r23, 0xFF	; 255
 712:	8f 4f       	sbci	r24, 0xFF	; 255
 714:	9f 4f       	sbci	r25, 0xFF	; 255
 716:	08 95       	ret

00000718 <__fp_split3>:
 718:	57 fd       	sbrc	r21, 7
 71a:	90 58       	subi	r25, 0x80	; 128
 71c:	44 0f       	add	r20, r20
 71e:	55 1f       	adc	r21, r21
 720:	59 f0       	breq	.+22     	; 0x738 <__fp_splitA+0x10>
 722:	5f 3f       	cpi	r21, 0xFF	; 255
 724:	71 f0       	breq	.+28     	; 0x742 <__fp_splitA+0x1a>
 726:	47 95       	ror	r20

00000728 <__fp_splitA>:
 728:	88 0f       	add	r24, r24
 72a:	97 fb       	bst	r25, 7
 72c:	99 1f       	adc	r25, r25
 72e:	61 f0       	breq	.+24     	; 0x748 <__fp_splitA+0x20>
 730:	9f 3f       	cpi	r25, 0xFF	; 255
 732:	79 f0       	breq	.+30     	; 0x752 <__fp_splitA+0x2a>
 734:	87 95       	ror	r24
 736:	08 95       	ret
 738:	12 16       	cp	r1, r18
 73a:	13 06       	cpc	r1, r19
 73c:	14 06       	cpc	r1, r20
 73e:	55 1f       	adc	r21, r21
 740:	f2 cf       	rjmp	.-28     	; 0x726 <__fp_split3+0xe>
 742:	46 95       	lsr	r20
 744:	f1 df       	rcall	.-30     	; 0x728 <__fp_splitA>
 746:	08 c0       	rjmp	.+16     	; 0x758 <__fp_splitA+0x30>
 748:	16 16       	cp	r1, r22
 74a:	17 06       	cpc	r1, r23
 74c:	18 06       	cpc	r1, r24
 74e:	99 1f       	adc	r25, r25
 750:	f1 cf       	rjmp	.-30     	; 0x734 <__fp_splitA+0xc>
 752:	86 95       	lsr	r24
 754:	71 05       	cpc	r23, r1
 756:	61 05       	cpc	r22, r1
 758:	08 94       	sec
 75a:	08 95       	ret

0000075c <__fp_zero>:
 75c:	e8 94       	clt

0000075e <__fp_szero>:
 75e:	bb 27       	eor	r27, r27
 760:	66 27       	eor	r22, r22
 762:	77 27       	eor	r23, r23
 764:	cb 01       	movw	r24, r22
 766:	97 f9       	bld	r25, 7
 768:	08 95       	ret

0000076a <__mulsf3>:
 76a:	0e 94 c8 03 	call	0x790	; 0x790 <__mulsf3x>
 76e:	0c 94 7b 03 	jmp	0x6f6	; 0x6f6 <__fp_round>
 772:	0e 94 6d 03 	call	0x6da	; 0x6da <__fp_pscA>
 776:	38 f0       	brcs	.+14     	; 0x786 <__mulsf3+0x1c>
 778:	0e 94 74 03 	call	0x6e8	; 0x6e8 <__fp_pscB>
 77c:	20 f0       	brcs	.+8      	; 0x786 <__mulsf3+0x1c>
 77e:	95 23       	and	r25, r21
 780:	11 f0       	breq	.+4      	; 0x786 <__mulsf3+0x1c>
 782:	0c 94 64 03 	jmp	0x6c8	; 0x6c8 <__fp_inf>
 786:	0c 94 6a 03 	jmp	0x6d4	; 0x6d4 <__fp_nan>
 78a:	11 24       	eor	r1, r1
 78c:	0c 94 af 03 	jmp	0x75e	; 0x75e <__fp_szero>

00000790 <__mulsf3x>:
 790:	0e 94 8c 03 	call	0x718	; 0x718 <__fp_split3>
 794:	70 f3       	brcs	.-36     	; 0x772 <__mulsf3+0x8>

00000796 <__mulsf3_pse>:
 796:	95 9f       	mul	r25, r21
 798:	c1 f3       	breq	.-16     	; 0x78a <__mulsf3+0x20>
 79a:	95 0f       	add	r25, r21
 79c:	50 e0       	ldi	r21, 0x00	; 0
 79e:	55 1f       	adc	r21, r21
 7a0:	62 9f       	mul	r22, r18
 7a2:	f0 01       	movw	r30, r0
 7a4:	72 9f       	mul	r23, r18
 7a6:	bb 27       	eor	r27, r27
 7a8:	f0 0d       	add	r31, r0
 7aa:	b1 1d       	adc	r27, r1
 7ac:	63 9f       	mul	r22, r19
 7ae:	aa 27       	eor	r26, r26
 7b0:	f0 0d       	add	r31, r0
 7b2:	b1 1d       	adc	r27, r1
 7b4:	aa 1f       	adc	r26, r26
 7b6:	64 9f       	mul	r22, r20
 7b8:	66 27       	eor	r22, r22
 7ba:	b0 0d       	add	r27, r0
 7bc:	a1 1d       	adc	r26, r1
 7be:	66 1f       	adc	r22, r22
 7c0:	82 9f       	mul	r24, r18
 7c2:	22 27       	eor	r18, r18
 7c4:	b0 0d       	add	r27, r0
 7c6:	a1 1d       	adc	r26, r1
 7c8:	62 1f       	adc	r22, r18
 7ca:	73 9f       	mul	r23, r19
 7cc:	b0 0d       	add	r27, r0
 7ce:	a1 1d       	adc	r26, r1
 7d0:	62 1f       	adc	r22, r18
 7d2:	83 9f       	mul	r24, r19
 7d4:	a0 0d       	add	r26, r0
 7d6:	61 1d       	adc	r22, r1
 7d8:	22 1f       	adc	r18, r18
 7da:	74 9f       	mul	r23, r20
 7dc:	33 27       	eor	r19, r19
 7de:	a0 0d       	add	r26, r0
 7e0:	61 1d       	adc	r22, r1
 7e2:	23 1f       	adc	r18, r19
 7e4:	84 9f       	mul	r24, r20
 7e6:	60 0d       	add	r22, r0
 7e8:	21 1d       	adc	r18, r1
 7ea:	82 2f       	mov	r24, r18
 7ec:	76 2f       	mov	r23, r22
 7ee:	6a 2f       	mov	r22, r26
 7f0:	11 24       	eor	r1, r1
 7f2:	9f 57       	subi	r25, 0x7F	; 127
 7f4:	50 40       	sbci	r21, 0x00	; 0
 7f6:	9a f0       	brmi	.+38     	; 0x81e <__DATA_REGION_LENGTH__+0x1e>
 7f8:	f1 f0       	breq	.+60     	; 0x836 <__DATA_REGION_LENGTH__+0x36>
 7fa:	88 23       	and	r24, r24
 7fc:	4a f0       	brmi	.+18     	; 0x810 <__DATA_REGION_LENGTH__+0x10>
 7fe:	ee 0f       	add	r30, r30
 800:	ff 1f       	adc	r31, r31
 802:	bb 1f       	adc	r27, r27
 804:	66 1f       	adc	r22, r22
 806:	77 1f       	adc	r23, r23
 808:	88 1f       	adc	r24, r24
 80a:	91 50       	subi	r25, 0x01	; 1
 80c:	50 40       	sbci	r21, 0x00	; 0
 80e:	a9 f7       	brne	.-22     	; 0x7fa <__mulsf3_pse+0x64>
 810:	9e 3f       	cpi	r25, 0xFE	; 254
 812:	51 05       	cpc	r21, r1
 814:	80 f0       	brcs	.+32     	; 0x836 <__DATA_REGION_LENGTH__+0x36>
 816:	0c 94 64 03 	jmp	0x6c8	; 0x6c8 <__fp_inf>
 81a:	0c 94 af 03 	jmp	0x75e	; 0x75e <__fp_szero>
 81e:	5f 3f       	cpi	r21, 0xFF	; 255
 820:	e4 f3       	brlt	.-8      	; 0x81a <__DATA_REGION_LENGTH__+0x1a>
 822:	98 3e       	cpi	r25, 0xE8	; 232
 824:	d4 f3       	brlt	.-12     	; 0x81a <__DATA_REGION_LENGTH__+0x1a>
 826:	86 95       	lsr	r24
 828:	77 95       	ror	r23
 82a:	67 95       	ror	r22
 82c:	b7 95       	ror	r27
 82e:	f7 95       	ror	r31
 830:	e7 95       	ror	r30
 832:	9f 5f       	subi	r25, 0xFF	; 255
 834:	c1 f7       	brne	.-16     	; 0x826 <__DATA_REGION_LENGTH__+0x26>
 836:	fe 2b       	or	r31, r30
 838:	88 0f       	add	r24, r24
 83a:	91 1d       	adc	r25, r1
 83c:	96 95       	lsr	r25
 83e:	87 95       	ror	r24
 840:	97 f9       	bld	r25, 7
 842:	08 95       	ret

00000844 <__ltoa_ncheck>:
 844:	bb 27       	eor	r27, r27
 846:	2a 30       	cpi	r18, 0x0A	; 10
 848:	51 f4       	brne	.+20     	; 0x85e <__ltoa_ncheck+0x1a>
 84a:	99 23       	and	r25, r25
 84c:	42 f4       	brpl	.+16     	; 0x85e <__ltoa_ncheck+0x1a>
 84e:	bd e2       	ldi	r27, 0x2D	; 45
 850:	90 95       	com	r25
 852:	80 95       	com	r24
 854:	70 95       	com	r23
 856:	61 95       	neg	r22
 858:	7f 4f       	sbci	r23, 0xFF	; 255
 85a:	8f 4f       	sbci	r24, 0xFF	; 255
 85c:	9f 4f       	sbci	r25, 0xFF	; 255
 85e:	0c 94 32 04 	jmp	0x864	; 0x864 <__ultoa_common>

00000862 <__ultoa_ncheck>:
 862:	bb 27       	eor	r27, r27

00000864 <__ultoa_common>:
 864:	fa 01       	movw	r30, r20
 866:	a6 2f       	mov	r26, r22
 868:	62 17       	cp	r22, r18
 86a:	71 05       	cpc	r23, r1
 86c:	81 05       	cpc	r24, r1
 86e:	91 05       	cpc	r25, r1
 870:	33 0b       	sbc	r19, r19
 872:	30 fb       	bst	r19, 0
 874:	66 f0       	brts	.+24     	; 0x88e <__ultoa_common+0x2a>
 876:	aa 27       	eor	r26, r26
 878:	66 0f       	add	r22, r22
 87a:	77 1f       	adc	r23, r23
 87c:	88 1f       	adc	r24, r24
 87e:	99 1f       	adc	r25, r25
 880:	aa 1f       	adc	r26, r26
 882:	a2 17       	cp	r26, r18
 884:	10 f0       	brcs	.+4      	; 0x88a <__ultoa_common+0x26>
 886:	a2 1b       	sub	r26, r18
 888:	63 95       	inc	r22
 88a:	38 50       	subi	r19, 0x08	; 8
 88c:	a9 f7       	brne	.-22     	; 0x878 <__ultoa_common+0x14>
 88e:	a0 5d       	subi	r26, 0xD0	; 208
 890:	aa 33       	cpi	r26, 0x3A	; 58
 892:	08 f0       	brcs	.+2      	; 0x896 <__ultoa_common+0x32>
 894:	a9 5d       	subi	r26, 0xD9	; 217
 896:	a1 93       	st	Z+, r26
 898:	36 f7       	brtc	.-52     	; 0x866 <__ultoa_common+0x2>
 89a:	b1 11       	cpse	r27, r1
 89c:	b1 93       	st	Z+, r27
 89e:	10 82       	st	Z, r1
 8a0:	ca 01       	movw	r24, r20
 8a2:	0c 94 53 04 	jmp	0x8a6	; 0x8a6 <strrev>

000008a6 <strrev>:
 8a6:	dc 01       	movw	r26, r24
 8a8:	fc 01       	movw	r30, r24
 8aa:	67 2f       	mov	r22, r23
 8ac:	71 91       	ld	r23, Z+
 8ae:	77 23       	and	r23, r23
 8b0:	e1 f7       	brne	.-8      	; 0x8aa <strrev+0x4>
 8b2:	32 97       	sbiw	r30, 0x02	; 2
 8b4:	04 c0       	rjmp	.+8      	; 0x8be <strrev+0x18>
 8b6:	7c 91       	ld	r23, X
 8b8:	6d 93       	st	X+, r22
 8ba:	70 83       	st	Z, r23
 8bc:	62 91       	ld	r22, -Z
 8be:	ae 17       	cp	r26, r30
 8c0:	bf 07       	cpc	r27, r31
 8c2:	c8 f3       	brcs	.-14     	; 0x8b6 <strrev+0x10>
 8c4:	08 95       	ret

000008c6 <_exit>:
 8c6:	f8 94       	cli

000008c8 <__stop_program>:
 8c8:	ff cf       	rjmp	.-2      	; 0x8c8 <__stop_program>
